; ModuleID = '40/1767.c'
source_filename = "40/1767.c"
target datalayout = "e-m:e-p270:32:32-p271:32:32-p272:64:64-i64:64-f80:128-n8:16:32:64-S128"
target triple = "x86_64-pc-linux-gnu"

@.str = private unnamed_addr constant [4 x i8] c"%lf\00", align 1
@.str.1 = private unnamed_addr constant [14 x i8] c"Invalid input\00", align 1
@.str.2 = private unnamed_addr constant [5 x i8] c"%.4f\00", align 1

; Function Attrs: noinline nounwind uwtable
define dso_local i32 @main(i32 %0, i8** %1) #0 {
  %3 = alloca i32, align 4
  %4 = alloca i32, align 4
  %5 = alloca i8**, align 8
  %6 = alloca double, align 8
  %7 = alloca double, align 8
  %8 = alloca double, align 8
  %9 = alloca double, align 8
  %10 = alloca double, align 8
  %11 = alloca double, align 8
  %12 = alloca double, align 8
  %13 = alloca double, align 8
  store i32 0, i32* %3, align 4
  store i32 %0, i32* %4, align 4
  store i8** %1, i8*** %5, align 8
  %14 = call i32 (i8*, ...) @__isoc99_scanf(i8* getelementptr inbounds ([4 x i8], [4 x i8]* @.str, i64 0, i64 0), double* %6)
  %15 = call i32 (i8*, ...) @__isoc99_scanf(i8* getelementptr inbounds ([4 x i8], [4 x i8]* @.str, i64 0, i64 0), double* %7)
  %16 = call i32 (i8*, ...) @__isoc99_scanf(i8* getelementptr inbounds ([4 x i8], [4 x i8]* @.str, i64 0, i64 0), double* %8)
  %17 = call i32 (i8*, ...) @__isoc99_scanf(i8* getelementptr inbounds ([4 x i8], [4 x i8]* @.str, i64 0, i64 0), double* %9)
  %18 = call i32 (i8*, ...) @__isoc99_scanf(i8* getelementptr inbounds ([4 x i8], [4 x i8]* @.str, i64 0, i64 0), double* %10)
  %19 = load double, double* %6, align 8
  %20 = load double, double* %7, align 8
  %21 = fadd double %19, %20
  %22 = load double, double* %8, align 8
  %23 = fadd double %21, %22
  %24 = load double, double* %9, align 8
  %25 = fadd double %23, %24
  %26 = fdiv double %25, 2.000000e+00
  store double %26, double* %12, align 8
  %27 = load double, double* %10, align 8
  %28 = fmul double %27, 1.000000e+02
  %29 = fdiv double %28, 3.600000e+02
  store double %29, double* %10, align 8
  %30 = load double, double* %12, align 8
  %31 = load double, double* %6, align 8
  %32 = fsub double %30, %31
  %33 = load double, double* %12, align 8
  %34 = load double, double* %7, align 8
  %35 = fsub double %33, %34
  %36 = fmul double %32, %35
  %37 = load double, double* %12, align 8
  %38 = load double, double* %8, align 8
  %39 = fsub double %37, %38
  %40 = fmul double %36, %39
  %41 = load double, double* %12, align 8
  %42 = load double, double* %9, align 8
  %43 = fsub double %41, %42
  %44 = fmul double %40, %43
  %45 = load double, double* %6, align 8
  %46 = load double, double* %7, align 8
  %47 = fmul double %45, %46
  %48 = load double, double* %8, align 8
  %49 = fmul double %47, %48
  %50 = load double, double* %9, align 8
  %51 = fmul double %49, %50
  %52 = load double, double* %10, align 8
  %53 = call double @cos(double %52) #3
  %54 = fmul double %51, %53
  %55 = load double, double* %10, align 8
  %56 = call double @cos(double %55) #3
  %57 = fmul double %54, %56
  %58 = fsub double %44, %57
  store double %58, double* %13, align 8
  %59 = load double, double* %13, align 8
  %60 = fcmp olt double %59, 0.000000e+00
  br i1 %60, label %61, label %63

61:                                               ; preds = %2
  %62 = call i32 (i8*, ...) @printf(i8* getelementptr inbounds ([14 x i8], [14 x i8]* @.str.1, i64 0, i64 0))
  br label %68

63:                                               ; preds = %2
  %64 = load double, double* %13, align 8
  %65 = call double @sqrt(double %64) #3
  store double %65, double* %11, align 8
  %66 = load double, double* %11, align 8
  %67 = call i32 (i8*, ...) @printf(i8* getelementptr inbounds ([5 x i8], [5 x i8]* @.str.2, i64 0, i64 0), double %66)
  br label %68

68:                                               ; preds = %63, %61
  ret i32 0
}

declare dso_local i32 @__isoc99_scanf(i8*, ...) #1

; Function Attrs: nounwind
declare dso_local double @cos(double) #2

declare dso_local i32 @printf(i8*, ...) #1

; Function Attrs: nounwind
declare dso_local double @sqrt(double) #2


!llvm.module.flags = !{!0}
!llvm.ident = !{!1}

!0 = !{i32 1, !"wchar_size", i32 4}
!1 = !{!"clang version 10.0.0-4ubuntu1 "}
